; Function Attrs: mustprogress nounwind uwtable
define noundef zeroext i1 @_ZNK7rocksdb9cassandra9Tombstone11CollectableEi(ptr noundef nonnull readonly align 8 captures(none) dereferenceable(24) %0, i32 noundef %1) local_unnamed_addr #5 align 2 {
  %3 = getelementptr inbounds nuw i8, ptr %0, i64 12
  %4 = load i32, ptr %3, align 4, !tbaa !57
  %5 = sext i32 %4 to i64
  %6 = sext i32 %1 to i64
  %7 = add nsw i64 %5, %6
  %8 = mul nsw i64 %7, 1000000000
  %9 = tail call i64 @_ZNSt6chrono3_V212system_clock3nowEv() #26
  %10 = icmp slt i64 %8, %9
  ret i1 %10
}